target datalayout = "e-m:e-p270:32:32-p271:32:32-p272:64:64-i64:64-i128:128-f80:128-n8:16:32:64-S128"
target triple = "x86_64-pc-linux-gnu"

; Function Attrs: mustprogress nounwind uwtable
define noundef i32 @_Z5nenumPKPKc(ptr noundef %0) #0 {
  %2 = alloca ptr, align 8
  %3 = alloca i32, align 4
  store ptr %0, ptr %2, align 8
  store i32 1, ptr %3, align 4
  br label %4

4:                                                ; preds = %23, %1
  %5 = load ptr, ptr %2, align 8
  %6 = load i32, ptr %3, align 4
  %7 = sext i32 %6 to i64
  %8 = getelementptr inbounds ptr, ptr %5, i64 %7
  %9 = load ptr, ptr %8, align 8
  %10 = icmp ne ptr %9, null
  br i1 %10, label %11, label %21

11:                                               ; preds = %4
  %12 = load ptr, ptr %2, align 8
  %13 = getelementptr inbounds ptr, ptr %12, i64 0
  %14 = load ptr, ptr %13, align 8
  %15 = load ptr, ptr %2, align 8
  %16 = load i32, ptr %3, align 4
  %17 = sext i32 %16 to i64
  %18 = getelementptr inbounds ptr, ptr %15, i64 %17
  %19 = load ptr, ptr %18, align 8
  %20 = icmp ne ptr %14, %19
  br label %21

21:                                               ; preds = %11, %4
  %22 = phi i1 [ false, %4 ], [ %20, %11 ]
  br i1 %22, label %23, label %26

23:                                               ; preds = %21
  %24 = load i32, ptr %3, align 4
  %25 = add nsw i32 %24, 1
  store i32 %25, ptr %3, align 4
  br label %4, !llvm.loop !5

26:                                               ; preds = %21
  %27 = load i32, ptr %3, align 4
  ret i32 %27
}