; Function Attrs: mustprogress nofree norecurse nosync nounwind willreturn memory(argmem: read) uwtable
define noundef i32 @_Z5nenumPKPKc(ptr nocapture noundef readonly %0) local_unnamed_addr #0 {
  %2 = getelementptr inbounds i8, ptr %0, i64 8
  %3 = load ptr, ptr %2, align 8
  %.not8 = icmp eq ptr %3, null
  br i1 %.not8, label %.critedge, label %.lr.ph

.lr.ph:                                           ; preds = %1
  %4 = load ptr, ptr %0, align 8
  br label %5

5:                                                ; preds = %.lr.ph, %7
  %indvars.iv = phi i64 [ 1, %.lr.ph ], [ %indvars.iv.next, %7 ]
  %6 = phi ptr [ %3, %.lr.ph ], [ %9, %7 ]
  %.not7 = icmp eq ptr %4, %6
  br i1 %.not7, label %.critedge.loopexit, label %7

7:                                                ; preds = %5
  %indvars.iv.next = add nuw nsw i64 %indvars.iv, 1
  %8 = getelementptr inbounds ptr, ptr %0, i64 %indvars.iv.next
  %9 = load ptr, ptr %8, align 8
  %.not = icmp eq ptr %9, null
  br i1 %.not, label %.critedge.loopexit, label %5, !llvm.loop !5

.critedge.loopexit:                               ; preds = %7, %5
  %.0.lcssa.ph.in = phi i64 [ %indvars.iv, %5 ], [ %indvars.iv.next, %7 ]
  %.0.lcssa.ph = trunc i64 %.0.lcssa.ph.in to i32
  br label %.critedge

.critedge:                                        ; preds = %.critedge.loopexit, %1
  %.0.lcssa = phi i32 [ 1, %1 ], [ %.0.lcssa.ph, %.critedge.loopexit ]
  ret i32 %.0.lcssa
}